; Function Attrs: mustprogress nounwind uwtable
define dso_local void @_ZN8cmTargetD2Ev(ptr noundef nonnull align 8 captures(none) dereferenceable(8) %0) unnamed_addr #4 align 2 {
  %2 = load ptr, ptr %0, align 8, !tbaa !22
  %.not.i = icmp eq ptr %2, null
  br i1 %.not.i, label %_ZNSt10unique_ptrI17cmTargetInternalsSt14default_deleteIS0_EED2Ev.exit, label %_ZNKSt14default_deleteI17cmTargetInternalsEclEPS0_.exit.i

_ZNKSt14default_deleteI17cmTargetInternalsEclEPS0_.exit.i: ; preds = %1
  tail call void @_ZN17cmTargetInternalsD2Ev(ptr noundef nonnull align 8 dereferenceable(1960) %2) #30
  tail call void @_ZdlPvm(ptr noundef nonnull %2, i64 noundef 1960) #31
  br label %_ZNSt10unique_ptrI17cmTargetInternalsSt14default_deleteIS0_EED2Ev.exit

_ZNSt10unique_ptrI17cmTargetInternalsSt14default_deleteIS0_EED2Ev.exit: ; preds = %1, %_ZNKSt14default_deleteI17cmTargetInternalsEclEPS0_.exit.i
  store ptr null, ptr %0, align 8, !tbaa !22
  ret void
}